target datalayout = "e-m:e-p270:32:32-p271:32:32-p272:64:64-i64:64-i128:128-f80:128-n8:16:32:64-S128"
target triple = "x86_64-pc-linux-gnu"

%struct.mbedtls_mpi = type { i32, i64, ptr }

; Function Attrs: mustprogress nounwind uwtable
define hidden i32 @mbedtls_mpi_cmp_mpi(ptr noundef %0, ptr noundef %1) #0 {
  %3 = alloca i32, align 4
  %4 = alloca ptr, align 8
  %5 = alloca ptr, align 8
  %6 = alloca i64, align 8
  %7 = alloca i64, align 8
  %8 = alloca i32, align 4
  store ptr %0, ptr %4, align 8, !tbaa !3
  store ptr %1, ptr %5, align 8, !tbaa !3
  call void @llvm.lifetime.start.p0(i64 8, ptr %6) #10
  call void @llvm.lifetime.start.p0(i64 8, ptr %7) #10
  br label %9

9:                                                ; preds = %2
  br label %10

10:                                               ; preds = %9
  br label %11

11:                                               ; preds = %10
  br label %12

12:                                               ; preds = %11
  br label %13

13:                                               ; preds = %12
  br label %14

14:                                               ; preds = %13
  %15 = load ptr, ptr %4, align 8, !tbaa !3
  %16 = getelementptr inbounds nuw %struct.mbedtls_mpi, ptr %15, i32 0, i32 1
  %17 = load i64, ptr %16, align 8, !tbaa !13
  store i64 %17, ptr %6, align 8, !tbaa !16
  br label %18

18:                                               ; preds = %32, %14
  %19 = load i64, ptr %6, align 8, !tbaa !16
  %20 = icmp ugt i64 %19, 0
  br i1 %20, label %21, label %35

21:                                               ; preds = %18
  %22 = load ptr, ptr %4, align 8, !tbaa !3
  %23 = getelementptr inbounds nuw %struct.mbedtls_mpi, ptr %22, i32 0, i32 2
  %24 = load ptr, ptr %23, align 8, !tbaa !14
  %25 = load i64, ptr %6, align 8, !tbaa !16
  %26 = sub i64 %25, 1
  %27 = getelementptr inbounds nuw i64, ptr %24, i64 %26
  %28 = load i64, ptr %27, align 8, !tbaa !16
  %29 = icmp ne i64 %28, 0
  br i1 %29, label %30, label %31

30:                                               ; preds = %21
  br label %35

31:                                               ; preds = %21
  br label %32

32:                                               ; preds = %31
  %33 = load i64, ptr %6, align 8, !tbaa !16
  %34 = add i64 %33, -1
  store i64 %34, ptr %6, align 8, !tbaa !16
  br label %18, !llvm.loop !51

35:                                               ; preds = %30, %18
  %36 = load ptr, ptr %5, align 8, !tbaa !3
  %37 = getelementptr inbounds nuw %struct.mbedtls_mpi, ptr %36, i32 0, i32 1
  %38 = load i64, ptr %37, align 8, !tbaa !13
  store i64 %38, ptr %7, align 8, !tbaa !16
  br label %39

39:                                               ; preds = %53, %35
  %40 = load i64, ptr %7, align 8, !tbaa !16
  %41 = icmp ugt i64 %40, 0
  br i1 %41, label %42, label %56

42:                                               ; preds = %39
  %43 = load ptr, ptr %5, align 8, !tbaa !3
  %44 = getelementptr inbounds nuw %struct.mbedtls_mpi, ptr %43, i32 0, i32 2
  %45 = load ptr, ptr %44, align 8, !tbaa !14
  %46 = load i64, ptr %7, align 8, !tbaa !16
  %47 = sub i64 %46, 1
  %48 = getelementptr inbounds nuw i64, ptr %45, i64 %47
  %49 = load i64, ptr %48, align 8, !tbaa !16
  %50 = icmp ne i64 %49, 0
  br i1 %50, label %51, label %52

51:                                               ; preds = %42
  br label %56

52:                                               ; preds = %42
  br label %53

53:                                               ; preds = %52
  %54 = load i64, ptr %7, align 8, !tbaa !16
  %55 = add i64 %54, -1
  store i64 %55, ptr %7, align 8, !tbaa !16
  br label %39, !llvm.loop !52

56:                                               ; preds = %51, %39
  %57 = load i64, ptr %6, align 8, !tbaa !16
  %58 = icmp eq i64 %57, 0
  br i1 %58, label %59, label %63

59:                                               ; preds = %56
  %60 = load i64, ptr %7, align 8, !tbaa !16
  %61 = icmp eq i64 %60, 0
  br i1 %61, label %62, label %63

62:                                               ; preds = %59
  store i32 0, ptr %3, align 4
  store i32 1, ptr %8, align 4
  br label %152

63:                                               ; preds = %59, %56
  %64 = load i64, ptr %6, align 8, !tbaa !16
  %65 = load i64, ptr %7, align 8, !tbaa !16
  %66 = icmp ugt i64 %64, %65
  br i1 %66, label %67, label %71

67:                                               ; preds = %63
  %68 = load ptr, ptr %4, align 8, !tbaa !3
  %69 = getelementptr inbounds nuw %struct.mbedtls_mpi, ptr %68, i32 0, i32 0
  %70 = load i32, ptr %69, align 8, !tbaa !8
  store i32 %70, ptr %3, align 4
  store i32 1, ptr %8, align 4
  br label %152

71:                                               ; preds = %63
  %72 = load i64, ptr %7, align 8, !tbaa !16
  %73 = load i64, ptr %6, align 8, !tbaa !16
  %74 = icmp ugt i64 %72, %73
  br i1 %74, label %75, label %80

75:                                               ; preds = %71
  %76 = load ptr, ptr %5, align 8, !tbaa !3
  %77 = getelementptr inbounds nuw %struct.mbedtls_mpi, ptr %76, i32 0, i32 0
  %78 = load i32, ptr %77, align 8, !tbaa !8
  %79 = sub nsw i32 0, %78
  store i32 %79, ptr %3, align 4
  store i32 1, ptr %8, align 4
  br label %152

80:                                               ; preds = %71
  %81 = load ptr, ptr %4, align 8, !tbaa !3
  %82 = getelementptr inbounds nuw %struct.mbedtls_mpi, ptr %81, i32 0, i32 0
  %83 = load i32, ptr %82, align 8, !tbaa !8
  %84 = icmp sgt i32 %83, 0
  br i1 %84, label %85, label %91

85:                                               ; preds = %80
  %86 = load ptr, ptr %5, align 8, !tbaa !3
  %87 = getelementptr inbounds nuw %struct.mbedtls_mpi, ptr %86, i32 0, i32 0
  %88 = load i32, ptr %87, align 8, !tbaa !8
  %89 = icmp slt i32 %88, 0
  br i1 %89, label %90, label %91

90:                                               ; preds = %85
  store i32 1, ptr %3, align 4
  store i32 1, ptr %8, align 4
  br label %152

91:                                               ; preds = %85, %80
  %92 = load ptr, ptr %5, align 8, !tbaa !3
  %93 = getelementptr inbounds nuw %struct.mbedtls_mpi, ptr %92, i32 0, i32 0
  %94 = load i32, ptr %93, align 8, !tbaa !8
  %95 = icmp sgt i32 %94, 0
  br i1 %95, label %96, label %102

96:                                               ; preds = %91
  %97 = load ptr, ptr %4, align 8, !tbaa !3
  %98 = getelementptr inbounds nuw %struct.mbedtls_mpi, ptr %97, i32 0, i32 0
  %99 = load i32, ptr %98, align 8, !tbaa !8
  %100 = icmp slt i32 %99, 0
  br i1 %100, label %101, label %102

101:                                              ; preds = %96
  store i32 -1, ptr %3, align 4
  store i32 1, ptr %8, align 4
  br label %152

102:                                              ; preds = %96, %91
  br label %103

103:                                              ; preds = %148, %102
  %104 = load i64, ptr %6, align 8, !tbaa !16
  %105 = icmp ugt i64 %104, 0
  br i1 %105, label %106, label %151

106:                                              ; preds = %103
  %107 = load ptr, ptr %4, align 8, !tbaa !3
  %108 = getelementptr inbounds nuw %struct.mbedtls_mpi, ptr %107, i32 0, i32 2
  %109 = load ptr, ptr %108, align 8, !tbaa !14
  %110 = load i64, ptr %6, align 8, !tbaa !16
  %111 = sub i64 %110, 1
  %112 = getelementptr inbounds nuw i64, ptr %109, i64 %111
  %113 = load i64, ptr %112, align 8, !tbaa !16
  %114 = load ptr, ptr %5, align 8, !tbaa !3
  %115 = getelementptr inbounds nuw %struct.mbedtls_mpi, ptr %114, i32 0, i32 2
  %116 = load ptr, ptr %115, align 8, !tbaa !14
  %117 = load i64, ptr %6, align 8, !tbaa !16
  %118 = sub i64 %117, 1
  %119 = getelementptr inbounds nuw i64, ptr %116, i64 %118
  %120 = load i64, ptr %119, align 8, !tbaa !16
  %121 = icmp ugt i64 %113, %120
  br i1 %121, label %122, label %126

122:                                              ; preds = %106
  %123 = load ptr, ptr %4, align 8, !tbaa !3
  %124 = getelementptr inbounds nuw %struct.mbedtls_mpi, ptr %123, i32 0, i32 0
  %125 = load i32, ptr %124, align 8, !tbaa !8
  store i32 %125, ptr %3, align 4
  store i32 1, ptr %8, align 4
  br label %152

126:                                              ; preds = %106
  %127 = load ptr, ptr %4, align 8, !tbaa !3
  %128 = getelementptr inbounds nuw %struct.mbedtls_mpi, ptr %127, i32 0, i32 2
  %129 = load ptr, ptr %128, align 8, !tbaa !14
  %130 = load i64, ptr %6, align 8, !tbaa !16
  %131 = sub i64 %130, 1
  %132 = getelementptr inbounds nuw i64, ptr %129, i64 %131
  %133 = load i64, ptr %132, align 8, !tbaa !16
  %134 = load ptr, ptr %5, align 8, !tbaa !3
  %135 = getelementptr inbounds nuw %struct.mbedtls_mpi, ptr %134, i32 0, i32 2
  %136 = load ptr, ptr %135, align 8, !tbaa !14
  %137 = load i64, ptr %6, align 8, !tbaa !16
  %138 = sub i64 %137, 1
  %139 = getelementptr inbounds nuw i64, ptr %136, i64 %138
  %140 = load i64, ptr %139, align 8, !tbaa !16
  %141 = icmp ult i64 %133, %140
  br i1 %141, label %142, label %147

142:                                              ; preds = %126
  %143 = load ptr, ptr %4, align 8, !tbaa !3
  %144 = getelementptr inbounds nuw %struct.mbedtls_mpi, ptr %143, i32 0, i32 0
  %145 = load i32, ptr %144, align 8, !tbaa !8
  %146 = sub nsw i32 0, %145
  store i32 %146, ptr %3, align 4
  store i32 1, ptr %8, align 4
  br label %152

147:                                              ; preds = %126
  br label %148

148:                                              ; preds = %147
  %149 = load i64, ptr %6, align 8, !tbaa !16
  %150 = add i64 %149, -1
  store i64 %150, ptr %6, align 8, !tbaa !16
  br label %103, !llvm.loop !53

151:                                              ; preds = %103
  store i32 0, ptr %3, align 4
  store i32 1, ptr %8, align 4
  br label %152

152:                                              ; preds = %151, %142, %122, %101, %90, %75, %67, %62
  call void @llvm.lifetime.end.p0(i64 8, ptr %7) #10
  call void @llvm.lifetime.end.p0(i64 8, ptr %6) #10
  %153 = load i32, ptr %3, align 4
  ret i32 %153
}

; Function Attrs: mustprogress nounwind uwtable
define hidden i32 @mbedtls_mpi_cmp_int(ptr noundef %0, i64 noundef %1) #0 {
  %3 = alloca ptr, align 8
  %4 = alloca i64, align 8
  %5 = alloca %struct.mbedtls_mpi, align 8
  %6 = alloca [1 x i64], align 8
  store ptr %0, ptr %3, align 8, !tbaa !3
  store i64 %1, ptr %4, align 8, !tbaa !16
  call void @llvm.lifetime.start.p0(i64 24, ptr %5) #10
  call void @llvm.lifetime.start.p0(i64 8, ptr %6) #10
  br label %7

7:                                                ; preds = %2
  br label %8

8:                                                ; preds = %7
  br label %9

9:                                                ; preds = %8
  %10 = load i64, ptr %4, align 8, !tbaa !16
  %11 = icmp slt i64 %10, 0
  br i1 %11, label %12, label %15

12:                                               ; preds = %9
  %13 = load i64, ptr %4, align 8, !tbaa !16
  %14 = sub nsw i64 0, %13
  br label %17

15:                                               ; preds = %9
  %16 = load i64, ptr %4, align 8, !tbaa !16
  br label %17

17:                                               ; preds = %15, %12
  %18 = phi i64 [ %14, %12 ], [ %16, %15 ]
  %19 = getelementptr inbounds [1 x i64], ptr %6, i64 0, i64 0
  store i64 %18, ptr %19, align 8, !tbaa !16
  %20 = load i64, ptr %4, align 8, !tbaa !16
  %21 = icmp slt i64 %20, 0
  %22 = select i1 %21, i32 -1, i32 1
  %23 = getelementptr inbounds nuw %struct.mbedtls_mpi, ptr %5, i32 0, i32 0
  store i32 %22, ptr %23, align 8, !tbaa !8
  %24 = getelementptr inbounds nuw %struct.mbedtls_mpi, ptr %5, i32 0, i32 1
  store i64 1, ptr %24, align 8, !tbaa !13
  %25 = getelementptr inbounds [1 x i64], ptr %6, i64 0, i64 0
  %26 = getelementptr inbounds nuw %struct.mbedtls_mpi, ptr %5, i32 0, i32 2
  store ptr %25, ptr %26, align 8, !tbaa !14
  %27 = load ptr, ptr %3, align 8, !tbaa !3
  %28 = call i32 @mbedtls_mpi_cmp_mpi(ptr noundef %27, ptr noundef %5)
  call void @llvm.lifetime.end.p0(i64 8, ptr %6) #10
  call void @llvm.lifetime.end.p0(i64 24, ptr %5) #10
  ret i32 %28
}