; Function Attrs: mustprogress nofree norecurse nosync nounwind willreturn memory(read, inaccessiblemem: none) uwtable
define hidden i32 @mbedtls_mpi_cmp_int(ptr noundef readonly captures(none) %0, i64 noundef %1) local_unnamed_addr #8 {
  %3 = icmp sgt i64 %1, -1
  %4 = tail call i64 @llvm.abs.i64(i64 %1, i1 true)
  %.neg = select i1 %3, i32 -1, i32 1
  %5 = getelementptr inbounds nuw i8, ptr %0, i64 8
  %6 = load i64, ptr %5, align 8, !tbaa !12
  %.not44.i = icmp eq i64 %6, 0
  br i1 %.not44.i, label %.lr.ph51.i, label %.lr.ph.i

.lr.ph.i:                                         ; preds = %2
  %7 = getelementptr inbounds nuw i8, ptr %0, i64 16
  %8 = load ptr, ptr %7, align 8, !tbaa !11
  %invariant.gep.i = getelementptr i8, ptr %8, i64 -8
  br label %9

9:                                                ; preds = %11, %.lr.ph.i
  %.03545.i = phi i64 [ %6, %.lr.ph.i ], [ %12, %11 ]
  %gep.i = getelementptr i64, ptr %invariant.gep.i, i64 %.03545.i
  %10 = load i64, ptr %gep.i, align 8, !tbaa !13
  %.not39.i = icmp eq i64 %10, 0
  br i1 %.not39.i, label %11, label %.lr.ph51.i

11:                                               ; preds = %9
  %12 = add i64 %.03545.i, -1
  %.not.i = icmp eq i64 %12, 0
  br i1 %.not.i, label %.lr.ph51.i, label %9, !llvm.loop !28

.lr.ph51.i:                                       ; preds = %9, %11, %2
  %.035.lcssa.i = phi i64 [ 0, %2 ], [ 0, %11 ], [ %.03545.i, %9 ]
  %.not41.i = icmp ne i64 %1, 0
  %spec.select = zext i1 %.not41.i to i64
  %13 = or i64 %.035.lcssa.i, %spec.select
  %or.cond.i = icmp eq i64 %13, 0
  br i1 %or.cond.i, label %mbedtls_mpi_cmp_mpi.exit, label %14

14:                                               ; preds = %.lr.ph51.i
  %15 = icmp ugt i64 %.035.lcssa.i, %spec.select
  br i1 %15, label %16, label %18

16:                                               ; preds = %14
  %17 = load i32, ptr %0, align 8, !tbaa !3
  br label %mbedtls_mpi_cmp_mpi.exit

18:                                               ; preds = %14
  %19 = icmp samesign ult i64 %.035.lcssa.i, %spec.select
  br i1 %19, label %mbedtls_mpi_cmp_mpi.exit, label %20

20:                                               ; preds = %18
  %21 = load i32, ptr %0, align 8, !tbaa !3
  %22 = icmp sgt i32 %21, 0
  br i1 %22, label %23, label %24

23:                                               ; preds = %20
  br i1 %3, label %.preheader.i, label %mbedtls_mpi_cmp_mpi.exit

24:                                               ; preds = %20
  %25 = icmp ne i32 %21, 0
  %or.cond43.i = and i1 %3, %25
  br i1 %or.cond43.i, label %mbedtls_mpi_cmp_mpi.exit, label %.preheader.i

.preheader.i:                                     ; preds = %24, %23
  %26 = getelementptr inbounds nuw i8, ptr %0, i64 16
  br label %27

27:                                               ; preds = %34, %.preheader.i
  %.1.i = phi i64 [ %30, %34 ], [ %.035.lcssa.i, %.preheader.i ]
  %.not42.i = icmp eq i64 %.1.i, 0
  br i1 %.not42.i, label %mbedtls_mpi_cmp_mpi.exit, label %28

28:                                               ; preds = %27
  %29 = load ptr, ptr %26, align 8, !tbaa !11
  %30 = add i64 %.1.i, -1
  %31 = getelementptr inbounds nuw i64, ptr %29, i64 %30
  %32 = load i64, ptr %31, align 8, !tbaa !13
  %33 = icmp ugt i64 %32, %4
  br i1 %33, label %mbedtls_mpi_cmp_mpi.exit, label %34

34:                                               ; preds = %28
  %35 = icmp ult i64 %32, %4
  br i1 %35, label %36, label %27, !llvm.loop !45

36:                                               ; preds = %34
  %37 = sub nsw i32 0, %21
  br label %mbedtls_mpi_cmp_mpi.exit

mbedtls_mpi_cmp_mpi.exit:                         ; preds = %27, %28, %18, %.lr.ph51.i, %16, %23, %24, %36
  %.036.i = phi i32 [ %17, %16 ], [ %37, %36 ], [ 0, %.lr.ph51.i ], [ 1, %23 ], [ -1, %24 ], [ %.neg, %18 ], [ 0, %27 ], [ %21, %28 ]
  ret i32 %.036.i
}